target datalayout = "e-m:e-p270:32:32-p271:32:32-p272:64:64-i64:64-i128:128-f80:128-n8:16:32:64-S128"
target triple = "x86_64-pc-linux-gnu"

%"struct.OpenImageIO::v3_1_0::TypeDesc" = type { i8, i8, i8, i8, i32 }

; Function Attrs: mustprogress nounwind uwtable
define hidden noundef i32 @_ZN11OpenImageIO6v3_1_013OpenEXROutput12imfpixeltypeENS0_8TypeDescE(ptr noundef nonnull align 8 dereferenceable(384) %0, i64 %1) #7 align 2 {
  %3 = alloca %"struct.OpenImageIO::v3_1_0::TypeDesc", align 4
  %4 = alloca ptr, align 8
  %5 = alloca i32, align 4
  store i64 %1, ptr %3, align 4
  store ptr %0, ptr %4, align 8, !tbaa !33
  call void @llvm.lifetime.start.p0(i64 4, ptr %5) #3
  %6 = getelementptr inbounds nuw %"struct.OpenImageIO::v3_1_0::TypeDesc", ptr %3, i32 0, i32 0
  %7 = load i8, ptr %6, align 4, !tbaa !222
  %8 = zext i8 %7 to i32
  switch i32 %8, label %11 [
    i32 6, label %9
    i32 11, label %10
    i32 12, label %10
  ]

9:                                                ; preds = %2
  store i32 0, ptr %5, align 4, !tbaa !264
  br label %12

10:                                               ; preds = %2, %2
  store i32 2, ptr %5, align 4, !tbaa !264
  br label %12

11:                                               ; preds = %2
  store i32 1, ptr %5, align 4, !tbaa !264
  br label %12

12:                                               ; preds = %11, %10, %9
  %13 = load i32, ptr %5, align 4, !tbaa !264
  call void @llvm.lifetime.end.p0(i64 4, ptr %5) #3
  ret i32 %13
}