; Function Attrs: mustprogress nofree norecurse nosync nounwind willreturn memory(none) uwtable
define hidden noundef range(i32 0, 3) i32 @_ZN11OpenImageIO6v3_1_013OpenEXROutput12imfpixeltypeENS0_8TypeDescE(ptr noundef nonnull readnone align 8 captures(none) dereferenceable(384) %0, i64 %1) local_unnamed_addr #8 align 2 {
  %.sroa.0.0.extract.trunc = trunc i64 %1 to i8
  %switch.tableidx = add i8 %.sroa.0.0.extract.trunc, -6
  %3 = icmp ult i8 %switch.tableidx, 7
  br i1 %3, label %switch.lookup, label %5

switch.lookup:                                    ; preds = %2
  %4 = zext nneg i8 %switch.tableidx to i64
  %switch.gep = getelementptr inbounds nuw [7 x i32], ptr @switch.table._ZN11OpenImageIO6v3_1_013OpenEXROutput12imfpixeltypeENS0_8TypeDescE, i64 0, i64 %4
  %switch.load = load i32, ptr %switch.gep, align 4
  br label %5

5:                                                ; preds = %2, %switch.lookup
  %.0 = phi i32 [ %switch.load, %switch.lookup ], [ 1, %2 ]
  ret i32 %.0
}